ARM GAS  C:\Users\thoma\AppData\Local\Temp\ccAOuQVk.s 			page 1


   1              		.syntax unified
   2              		.cpu cortex-m3
   3              		.fpu softvfp
   4              		.eabi_attribute 20, 1
   5              		.eabi_attribute 21, 1
   6              		.eabi_attribute 23, 3
   7              		.eabi_attribute 24, 1
   8              		.eabi_attribute 25, 1
   9              		.eabi_attribute 26, 1
  10              		.eabi_attribute 30, 1
  11              		.eabi_attribute 34, 1
  12              		.eabi_attribute 18, 4
  13              		.thumb
  14              		.syntax unified
  15              		.file	"main.c"
  16              		.text
  17              	.Ltext0:
  18              		.cfi_sections	.debug_frame
  19              		.global	__aeabi_fmul
  20              		.global	__aeabi_fadd
  21              		.global	__aeabi_f2uiz
  22              		.section	.text.Sound,"ax",%progbits
  23              		.align	2
  24              		.global	Sound
  25              		.thumb
  26              		.thumb_func
  27              		.type	Sound, %function
  28              	Sound:
  29              	.LFB64:
  30              		.file 1 "main.c"
   1:main.c        **** /* ========================================
   2:main.c        ****  *
   3:main.c        ****  * Copyright YOUR COMPANY, THE YEAR
   4:main.c        ****  * All Rights Reserved
   5:main.c        ****  * UNPUBLISHED, LICENSED SOFTWARE.
   6:main.c        ****  *
   7:main.c        ****  * CONFIDENTIAL AND PROPRIETARY INFORMATION
   8:main.c        ****  * WHICH IS THE PROPERTY OF your company.
   9:main.c        ****  *
  10:main.c        ****  * ========================================
  11:main.c        **** */
  12:main.c        **** #include "project.h"
  13:main.c        **** #include "keypad.h"
  14:main.c        **** #include "math.h"
  15:main.c        **** 
  16:main.c        **** #define PI 3.14159
  17:main.c        **** #define N 100
  18:main.c        **** 
  19:main.c        **** int Start_F(){
  20:main.c        ****     
  21:main.c        ****     LCD_Start();
  22:main.c        ****     LCD_DisplayOn();
  23:main.c        ****     LCD_ClearDisplay();
  24:main.c        ****     //end for LCD
  25:main.c        ****     
  26:main.c        ****     ADC_Start();
  27:main.c        ****     //Timer_start(); 
ARM GAS  C:\Users\thoma\AppData\Local\Temp\ccAOuQVk.s 			page 2


  28:main.c        ****     return 0; 
  29:main.c        **** }
  30:main.c        **** 
  31:main.c        **** 
  32:main.c        **** int beacon(); 
  33:main.c        **** int print_keypad(); 
  34:main.c        **** int LED_off(); 
  35:main.c        **** int LED_control(int); 
  36:main.c        **** int Pot_control(uint32_t); 
  37:main.c        **** int Light_control(uint32_t); 
  38:main.c        **** 
  39:main.c        **** int blink1kHz(); 
  40:main.c        **** int blink1Hz(); 
  41:main.c        **** 
  42:main.c        **** int fill(); 
  43:main.c        **** int synthesizer();
  44:main.c        **** 
  45:main.c        **** float signal[100];
  46:main.c        **** uint16_t j = 0;
  47:main.c        **** uint8_t value;
  48:main.c        **** uint16_t cpt = 0;
  49:main.c        **** 
  50:main.c        **** CY_ISR (Sound){
  31              		.loc 1 50 0
  32              		.cfi_startproc
  33              		@ args = 0, pretend = 0, frame = 0
  34              		@ frame_needed = 0, uses_anonymous_args = 0
  35 0000 10B5     		push	{r4, lr}
  36              		.cfi_def_cfa_offset 8
  37              		.cfi_offset 4, -8
  38              		.cfi_offset 14, -4
  51:main.c        ****     value = 128 + 128*signal[j];
  39              		.loc 1 51 0
  40 0002 0F4C     		ldr	r4, .L4
  41 0004 2288     		ldrh	r2, [r4]
  42 0006 4FF08641 		mov	r1, #1124073472
  43 000a 0E4B     		ldr	r3, .L4+4
  44 000c 53F82200 		ldr	r0, [r3, r2, lsl #2]	@ float
  45 0010 FFF7FEFF 		bl	__aeabi_fmul
  46              	.LVL0:
  47 0014 4FF08641 		mov	r1, #1124073472
  48 0018 FFF7FEFF 		bl	__aeabi_fadd
  49              	.LVL1:
  50 001c FFF7FEFF 		bl	__aeabi_f2uiz
  51              	.LVL2:
  52 0020 C0B2     		uxtb	r0, r0
  53 0022 094B     		ldr	r3, .L4+8
  54 0024 1870     		strb	r0, [r3]
  52:main.c        ****     DAC_SetValue(value); 
  55              		.loc 1 52 0
  56 0026 FFF7FEFF 		bl	DAC_SetValue
  57              	.LVL3:
  53:main.c        ****     j++;
  58              		.loc 1 53 0
  59 002a 2388     		ldrh	r3, [r4]
  60 002c 0133     		adds	r3, r3, #1
  61 002e 9BB2     		uxth	r3, r3
ARM GAS  C:\Users\thoma\AppData\Local\Temp\ccAOuQVk.s 			page 3


  62 0030 2380     		strh	r3, [r4]	@ movhi
  54:main.c        ****     if(j == N){ j = 0;} 
  63              		.loc 1 54 0
  64 0032 642B     		cmp	r3, #100
  65 0034 01D1     		bne	.L2
  66              		.loc 1 54 0 is_stmt 0 discriminator 1
  67 0036 0022     		movs	r2, #0
  68 0038 2280     		strh	r2, [r4]	@ movhi
  69              	.L2:
  55:main.c        ****     TimerDAC_ReadStatusRegister(); //Do not forget to reset the register
  70              		.loc 1 55 0 is_stmt 1
  71 003a FFF7FEFF 		bl	TimerDAC_ReadStatusRegister
  72              	.LVL4:
  73 003e 10BD     		pop	{r4, pc}
  74              	.L5:
  75              		.align	2
  76              	.L4:
  77 0040 00000000 		.word	.LANCHOR0
  78 0044 00000000 		.word	signal
  79 0048 00000000 		.word	value
  80              		.cfi_endproc
  81              	.LFE64:
  82              		.size	Sound, .-Sound
  83              		.section	.text.LED,"ax",%progbits
  84              		.align	2
  85              		.global	LED
  86              		.thumb
  87              		.thumb_func
  88              		.type	LED, %function
  89              	LED:
  90              	.LFB65:
  56:main.c        **** }
  57:main.c        **** 
  58:main.c        **** CY_ISR(LED){
  91              		.loc 1 58 0
  92              		.cfi_startproc
  93              		@ args = 0, pretend = 0, frame = 0
  94              		@ frame_needed = 0, uses_anonymous_args = 0
  95 0000 08B5     		push	{r3, lr}
  96              		.cfi_def_cfa_offset 8
  97              		.cfi_offset 3, -8
  98              		.cfi_offset 14, -4
  59:main.c        ****     if(cpt < 1000){cpt++;}
  99              		.loc 1 59 0
 100 0002 0A4B     		ldr	r3, .L10
 101 0004 5B88     		ldrh	r3, [r3, #2]
 102 0006 B3F57A7F 		cmp	r3, #1000
 103 000a 03D2     		bcs	.L7
 104              		.loc 1 59 0 is_stmt 0 discriminator 1
 105 000c 0133     		adds	r3, r3, #1
 106 000e 074A     		ldr	r2, .L10
 107 0010 5380     		strh	r3, [r2, #2]	@ movhi
 108 0012 08E0     		b	.L8
 109              	.L7:
  60:main.c        ****     else{ LED01_Write( ~ LED01_Read()); cpt = 0; }
 110              		.loc 1 60 0 is_stmt 1
 111 0014 FFF7FEFF 		bl	LED01_Read
ARM GAS  C:\Users\thoma\AppData\Local\Temp\ccAOuQVk.s 			page 4


 112              	.LVL5:
 113 0018 C043     		mvns	r0, r0
 114 001a C0B2     		uxtb	r0, r0
 115 001c FFF7FEFF 		bl	LED01_Write
 116              	.LVL6:
 117 0020 0022     		movs	r2, #0
 118 0022 024B     		ldr	r3, .L10
 119 0024 5A80     		strh	r2, [r3, #2]	@ movhi
 120              	.L8:
  61:main.c        ****     Timer_ReadStatusRegister();
 121              		.loc 1 61 0
 122 0026 FFF7FEFF 		bl	Timer_ReadStatusRegister
 123              	.LVL7:
 124 002a 08BD     		pop	{r3, pc}
 125              	.L11:
 126              		.align	2
 127              	.L10:
 128 002c 00000000 		.word	.LANCHOR0
 129              		.cfi_endproc
 130              	.LFE65:
 131              		.size	LED, .-LED
 132              		.section	.text.Start_F,"ax",%progbits
 133              		.align	2
 134              		.global	Start_F
 135              		.thumb
 136              		.thumb_func
 137              		.type	Start_F, %function
 138              	Start_F:
 139              	.LFB63:
  19:main.c        ****     
 140              		.loc 1 19 0
 141              		.cfi_startproc
 142              		@ args = 0, pretend = 0, frame = 0
 143              		@ frame_needed = 0, uses_anonymous_args = 0
 144 0000 08B5     		push	{r3, lr}
 145              		.cfi_def_cfa_offset 8
 146              		.cfi_offset 3, -8
 147              		.cfi_offset 14, -4
  21:main.c        ****     LCD_DisplayOn();
 148              		.loc 1 21 0
 149 0002 FFF7FEFF 		bl	LCD_Start
 150              	.LVL8:
  22:main.c        ****     LCD_ClearDisplay();
 151              		.loc 1 22 0
 152 0006 0C20     		movs	r0, #12
 153 0008 FFF7FEFF 		bl	LCD_WriteControl
 154              	.LVL9:
  23:main.c        ****     //end for LCD
 155              		.loc 1 23 0
 156 000c 0120     		movs	r0, #1
 157 000e FFF7FEFF 		bl	LCD_WriteControl
 158              	.LVL10:
  26:main.c        ****     //Timer_start(); 
 159              		.loc 1 26 0
 160 0012 FFF7FEFF 		bl	ADC_Start
 161              	.LVL11:
  29:main.c        **** 
ARM GAS  C:\Users\thoma\AppData\Local\Temp\ccAOuQVk.s 			page 5


 162              		.loc 1 29 0
 163 0016 0020     		movs	r0, #0
 164 0018 08BD     		pop	{r3, pc}
 165              		.cfi_endproc
 166              	.LFE63:
 167              		.size	Start_F, .-Start_F
 168 001a 00BF     		.section	.text.print_keypad,"ax",%progbits
 169              		.align	2
 170              		.global	print_keypad
 171              		.thumb
 172              		.thumb_func
 173              		.type	print_keypad, %function
 174              	print_keypad:
 175              	.LFB67:
  62:main.c        **** 
  63:main.c        **** }
  64:main.c        **** 
  65:main.c        **** 
  66:main.c        **** int main(void)
  67:main.c        **** {
  68:main.c        ****     CyGlobalIntEnable; /* Enable global interrupts. */
  69:main.c        **** 
  70:main.c        ****     /* Place your initialization/startup code here (e.g. MyInst_Start()) */
  71:main.c        ****     
  72:main.c        ****     Start_F(); 
  73:main.c        ****     
  74:main.c        ****     LED_off();
  75:main.c        ****     
  76:main.c        ****     Timer_Start();
  77:main.c        ****     TimerDAC_Start(); 
  78:main.c        ****     DAC_Start();
  79:main.c        ****     DAC_SetValue(0);
  80:main.c        ****     
  81:main.c        ****     isr_dac_StartEx(Sound);
  82:main.c        ****     isr_led_StartEx(LED);
  83:main.c        ****     
  84:main.c        ****     fill();
  85:main.c        ****     
  86:main.c        ****     for(;;)
  87:main.c        ****     {
  88:main.c        ****         //synthesizer(); // no interrupt
  89:main.c        ****         
  90:main.c        ****     }
  91:main.c        **** }
  92:main.c        **** 
  93:main.c        **** int print_keypad(){
 176              		.loc 1 93 0
 177              		.cfi_startproc
 178              		@ args = 0, pretend = 0, frame = 0
 179              		@ frame_needed = 0, uses_anonymous_args = 0
 180 0000 08B5     		push	{r3, lr}
 181              		.cfi_def_cfa_offset 8
 182              		.cfi_offset 3, -8
 183              		.cfi_offset 14, -4
  94:main.c        ****     if(keypadScan() != 'z'){
 184              		.loc 1 94 0
 185 0002 FFF7FEFF 		bl	keypadScan
ARM GAS  C:\Users\thoma\AppData\Local\Temp\ccAOuQVk.s 			page 6


 186              	.LVL12:
 187 0006 7A28     		cmp	r0, #122
 188 0008 0AD0     		beq	.L15
  95:main.c        ****         LCD_ClearDisplay(); 
 189              		.loc 1 95 0
 190 000a 0120     		movs	r0, #1
 191 000c FFF7FEFF 		bl	LCD_WriteControl
 192              	.LVL13:
  96:main.c        ****         LCD_Position(0,1); 
 193              		.loc 1 96 0
 194 0010 0121     		movs	r1, #1
 195 0012 0020     		movs	r0, #0
 196 0014 FFF7FEFF 		bl	LCD_Position
 197              	.LVL14:
  97:main.c        ****         LCD_PutChar( keypadScan());
 198              		.loc 1 97 0
 199 0018 FFF7FEFF 		bl	keypadScan
 200              	.LVL15:
 201 001c FFF7FEFF 		bl	LCD_PutChar
 202              	.LVL16:
 203              	.L15:
  98:main.c        ****     }
  99:main.c        ****     CyDelay(100);  
 204              		.loc 1 99 0
 205 0020 6420     		movs	r0, #100
 206 0022 FFF7FEFF 		bl	CyDelay
 207              	.LVL17:
 100:main.c        ****    
 101:main.c        ****     return 0; 
 102:main.c        **** }
 208              		.loc 1 102 0
 209 0026 0020     		movs	r0, #0
 210 0028 08BD     		pop	{r3, pc}
 211              		.cfi_endproc
 212              	.LFE67:
 213              		.size	print_keypad, .-print_keypad
 214 002a 00BF     		.section	.text.LED_off,"ax",%progbits
 215              		.align	2
 216              		.global	LED_off
 217              		.thumb
 218              		.thumb_func
 219              		.type	LED_off, %function
 220              	LED_off:
 221              	.LFB68:
 103:main.c        **** 
 104:main.c        **** int LED_off(){
 222              		.loc 1 104 0
 223              		.cfi_startproc
 224              		@ args = 0, pretend = 0, frame = 0
 225              		@ frame_needed = 0, uses_anonymous_args = 0
 226 0000 08B5     		push	{r3, lr}
 227              		.cfi_def_cfa_offset 8
 228              		.cfi_offset 3, -8
 229              		.cfi_offset 14, -4
 105:main.c        ****     LED01_Write(0);
 230              		.loc 1 105 0
 231 0002 0020     		movs	r0, #0
ARM GAS  C:\Users\thoma\AppData\Local\Temp\ccAOuQVk.s 			page 7


 232 0004 FFF7FEFF 		bl	LED01_Write
 233              	.LVL18:
 106:main.c        ****     LED02_Write(0);
 234              		.loc 1 106 0
 235 0008 0020     		movs	r0, #0
 236 000a FFF7FEFF 		bl	LED02_Write
 237              	.LVL19:
 107:main.c        ****     LED03_Write(0);
 238              		.loc 1 107 0
 239 000e 0020     		movs	r0, #0
 240 0010 FFF7FEFF 		bl	LED03_Write
 241              	.LVL20:
 108:main.c        ****     LED04_Write(0);
 242              		.loc 1 108 0
 243 0014 0020     		movs	r0, #0
 244 0016 FFF7FEFF 		bl	LED04_Write
 245              	.LVL21:
 109:main.c        ****     
 110:main.c        ****     return 0; 
 111:main.c        **** }
 246              		.loc 1 111 0
 247 001a 0020     		movs	r0, #0
 248 001c 08BD     		pop	{r3, pc}
 249              		.cfi_endproc
 250              	.LFE68:
 251              		.size	LED_off, .-LED_off
 252 001e 00BF     		.section	.text.LED_control,"ax",%progbits
 253              		.align	2
 254              		.global	LED_control
 255              		.thumb
 256              		.thumb_func
 257              		.type	LED_control, %function
 258              	LED_control:
 259              	.LFB69:
 112:main.c        **** 
 113:main.c        **** int LED_control(int potVal){
 260              		.loc 1 113 0
 261              		.cfi_startproc
 262              		@ args = 0, pretend = 0, frame = 0
 263              		@ frame_needed = 0, uses_anonymous_args = 0
 264              	.LVL22:
 265 0000 08B5     		push	{r3, lr}
 266              		.cfi_def_cfa_offset 8
 267              		.cfi_offset 3, -8
 268              		.cfi_offset 14, -4
 114:main.c        ****     
 115:main.c        ****     if(potVal > 0 && potVal < 1000){
 269              		.loc 1 115 0
 270 0002 421E     		subs	r2, r0, #1
 271 0004 40F2E633 		movw	r3, #998
 272 0008 9A42     		cmp	r2, r3
 273 000a 0CD8     		bhi	.L20
 116:main.c        ****         LED01_Write(0); LED02_Write(0); LED03_Write(0); LED04_Write(0); 
 274              		.loc 1 116 0
 275 000c 0020     		movs	r0, #0
 276              	.LVL23:
 277 000e FFF7FEFF 		bl	LED01_Write
ARM GAS  C:\Users\thoma\AppData\Local\Temp\ccAOuQVk.s 			page 8


 278              	.LVL24:
 279 0012 0020     		movs	r0, #0
 280 0014 FFF7FEFF 		bl	LED02_Write
 281              	.LVL25:
 282 0018 0020     		movs	r0, #0
 283 001a FFF7FEFF 		bl	LED03_Write
 284              	.LVL26:
 285 001e 0020     		movs	r0, #0
 286 0020 FFF7FEFF 		bl	LED04_Write
 287              	.LVL27:
 288 0024 44E0     		b	.L21
 289              	.LVL28:
 290              	.L20:
 117:main.c        ****     }
 118:main.c        ****     else if(potVal >= 1000 && potVal < 2000){
 291              		.loc 1 118 0
 292 0026 A0F57A73 		sub	r3, r0, #1000
 293 002a B3F57A7F 		cmp	r3, #1000
 294 002e 0CD2     		bcs	.L22
 119:main.c        ****         LED01_Write(1); LED02_Write(0); LED03_Write(0); LED04_Write(0); 
 295              		.loc 1 119 0
 296 0030 0120     		movs	r0, #1
 297              	.LVL29:
 298 0032 FFF7FEFF 		bl	LED01_Write
 299              	.LVL30:
 300 0036 0020     		movs	r0, #0
 301 0038 FFF7FEFF 		bl	LED02_Write
 302              	.LVL31:
 303 003c 0020     		movs	r0, #0
 304 003e FFF7FEFF 		bl	LED03_Write
 305              	.LVL32:
 306 0042 0020     		movs	r0, #0
 307 0044 FFF7FEFF 		bl	LED04_Write
 308              	.LVL33:
 309 0048 32E0     		b	.L21
 310              	.LVL34:
 311              	.L22:
 120:main.c        ****     }
 121:main.c        ****     else if(potVal >= 2000 && potVal < 3000){
 312              		.loc 1 121 0
 313 004a A0F5FA63 		sub	r3, r0, #2000
 314 004e B3F57A7F 		cmp	r3, #1000
 315 0052 0CD2     		bcs	.L23
 122:main.c        ****         LED01_Write(1); LED02_Write(1); LED03_Write(0); LED04_Write(0); 
 316              		.loc 1 122 0
 317 0054 0120     		movs	r0, #1
 318              	.LVL35:
 319 0056 FFF7FEFF 		bl	LED01_Write
 320              	.LVL36:
 321 005a 0120     		movs	r0, #1
 322 005c FFF7FEFF 		bl	LED02_Write
 323              	.LVL37:
 324 0060 0020     		movs	r0, #0
 325 0062 FFF7FEFF 		bl	LED03_Write
 326              	.LVL38:
 327 0066 0020     		movs	r0, #0
 328 0068 FFF7FEFF 		bl	LED04_Write
ARM GAS  C:\Users\thoma\AppData\Local\Temp\ccAOuQVk.s 			page 9


 329              	.LVL39:
 330 006c 20E0     		b	.L21
 331              	.LVL40:
 332              	.L23:
 123:main.c        ****     }
 124:main.c        ****     else if(potVal >= 3000 && potVal < 4000){
 333              		.loc 1 124 0
 334 006e A0F6B833 		subw	r3, r0, #3000
 335 0072 B3F57A7F 		cmp	r3, #1000
 336 0076 0CD2     		bcs	.L24
 125:main.c        ****         LED01_Write(1); LED02_Write(1); LED03_Write(1); LED04_Write(0); 
 337              		.loc 1 125 0
 338 0078 0120     		movs	r0, #1
 339              	.LVL41:
 340 007a FFF7FEFF 		bl	LED01_Write
 341              	.LVL42:
 342 007e 0120     		movs	r0, #1
 343 0080 FFF7FEFF 		bl	LED02_Write
 344              	.LVL43:
 345 0084 0120     		movs	r0, #1
 346 0086 FFF7FEFF 		bl	LED03_Write
 347              	.LVL44:
 348 008a 0020     		movs	r0, #0
 349 008c FFF7FEFF 		bl	LED04_Write
 350              	.LVL45:
 351 0090 0EE0     		b	.L21
 352              	.LVL46:
 353              	.L24:
 126:main.c        ****     }
 127:main.c        ****     else if(potVal >= 4000){
 354              		.loc 1 127 0
 355 0092 B0F57A6F 		cmp	r0, #4000
 356 0096 0BDB     		blt	.L21
 128:main.c        ****         LED01_Write(1); LED02_Write(1); LED03_Write(1); LED04_Write(1); 
 357              		.loc 1 128 0
 358 0098 0120     		movs	r0, #1
 359              	.LVL47:
 360 009a FFF7FEFF 		bl	LED01_Write
 361              	.LVL48:
 362 009e 0120     		movs	r0, #1
 363 00a0 FFF7FEFF 		bl	LED02_Write
 364              	.LVL49:
 365 00a4 0120     		movs	r0, #1
 366 00a6 FFF7FEFF 		bl	LED03_Write
 367              	.LVL50:
 368 00aa 0120     		movs	r0, #1
 369 00ac FFF7FEFF 		bl	LED04_Write
 370              	.LVL51:
 371              	.L21:
 129:main.c        ****     }    
 130:main.c        ****     
 131:main.c        ****     
 132:main.c        ****     return 0; 
 133:main.c        **** }
 372              		.loc 1 133 0
 373 00b0 0020     		movs	r0, #0
 374 00b2 08BD     		pop	{r3, pc}
ARM GAS  C:\Users\thoma\AppData\Local\Temp\ccAOuQVk.s 			page 10


 375              		.cfi_endproc
 376              	.LFE69:
 377              		.size	LED_control, .-LED_control
 378              		.section	.text.blink1kHz,"ax",%progbits
 379              		.align	2
 380              		.global	blink1kHz
 381              		.thumb
 382              		.thumb_func
 383              		.type	blink1kHz, %function
 384              	blink1kHz:
 385              	.LFB70:
 134:main.c        **** 
 135:main.c        **** 
 136:main.c        **** int blink1kHz(){
 386              		.loc 1 136 0
 387              		.cfi_startproc
 388              		@ args = 0, pretend = 0, frame = 0
 389              		@ frame_needed = 0, uses_anonymous_args = 0
 390 0000 08B5     		push	{r3, lr}
 391              		.cfi_def_cfa_offset 8
 392              		.cfi_offset 3, -8
 393              		.cfi_offset 14, -4
 137:main.c        ****     if(0x80 & Timer_ReadStatusRegister()){
 394              		.loc 1 137 0
 395 0002 FFF7FEFF 		bl	Timer_ReadStatusRegister
 396              	.LVL52:
 397 0006 10F0800F 		tst	r0, #128
 398 000a 05D0     		beq	.L27
 138:main.c        ****         LED01_Write( ~ LED01_Read());
 399              		.loc 1 138 0
 400 000c FFF7FEFF 		bl	LED01_Read
 401              	.LVL53:
 402 0010 C043     		mvns	r0, r0
 403 0012 C0B2     		uxtb	r0, r0
 404 0014 FFF7FEFF 		bl	LED01_Write
 405              	.LVL54:
 406              	.L27:
 139:main.c        ****     }
 140:main.c        **** 
 141:main.c        **** return 0;}
 407              		.loc 1 141 0
 408 0018 0020     		movs	r0, #0
 409 001a 08BD     		pop	{r3, pc}
 410              		.cfi_endproc
 411              	.LFE70:
 412              		.size	blink1kHz, .-blink1kHz
 413              		.section	.text.blink1Hz,"ax",%progbits
 414              		.align	2
 415              		.global	blink1Hz
 416              		.thumb
 417              		.thumb_func
 418              		.type	blink1Hz, %function
 419              	blink1Hz:
 420              	.LFB71:
 142:main.c        **** 
 143:main.c        **** int blink1Hz(int cpt){
 421              		.loc 1 143 0
ARM GAS  C:\Users\thoma\AppData\Local\Temp\ccAOuQVk.s 			page 11


 422              		.cfi_startproc
 423              		@ args = 0, pretend = 0, frame = 0
 424              		@ frame_needed = 0, uses_anonymous_args = 0
 425              	.LVL55:
 426 0000 10B5     		push	{r4, lr}
 427              		.cfi_def_cfa_offset 8
 428              		.cfi_offset 4, -8
 429              		.cfi_offset 14, -4
 430 0002 0446     		mov	r4, r0
 144:main.c        ****     if(0x80 & Timer_ReadStatusRegister()){
 431              		.loc 1 144 0
 432 0004 FFF7FEFF 		bl	Timer_ReadStatusRegister
 433              	.LVL56:
 434 0008 10F0800F 		tst	r0, #128
 435 000c 08D0     		beq	.L30
 145:main.c        ****         if(cpt < 1000)
 436              		.loc 1 145 0
 437 000e B4F57A7F 		cmp	r4, #1000
 438 0012 05DA     		bge	.L30
 146:main.c        ****         LED01_Write( ~ LED01_Read());
 439              		.loc 1 146 0
 440 0014 FFF7FEFF 		bl	LED01_Read
 441              	.LVL57:
 442 0018 C043     		mvns	r0, r0
 443 001a C0B2     		uxtb	r0, r0
 444 001c FFF7FEFF 		bl	LED01_Write
 445              	.LVL58:
 446              	.L30:
 147:main.c        ****     }
 148:main.c        **** 
 149:main.c        **** return 0;}
 447              		.loc 1 149 0
 448 0020 0020     		movs	r0, #0
 449 0022 10BD     		pop	{r4, pc}
 450              		.cfi_endproc
 451              	.LFE71:
 452              		.size	blink1Hz, .-blink1Hz
 453              		.global	__aeabi_i2d
 454              		.global	__aeabi_dmul
 455              		.global	__aeabi_ddiv
 456              		.global	__aeabi_d2f
 457              		.section	.text.fill,"ax",%progbits
 458              		.align	2
 459              		.global	fill
 460              		.thumb
 461              		.thumb_func
 462              		.type	fill, %function
 463              	fill:
 464              	.LFB72:
 150:main.c        **** 
 151:main.c        **** int fill(){
 465              		.loc 1 151 0
 466              		.cfi_startproc
 467              		@ args = 0, pretend = 0, frame = 0
 468              		@ frame_needed = 0, uses_anonymous_args = 0
 469 0000 10B5     		push	{r4, lr}
 470              		.cfi_def_cfa_offset 8
ARM GAS  C:\Users\thoma\AppData\Local\Temp\ccAOuQVk.s 			page 12


 471              		.cfi_offset 4, -8
 472              		.cfi_offset 14, -4
 473              	.LVL59:
 474              	.LBB2:
 152:main.c        ****     for(int i = 0; i < N;i++){
 475              		.loc 1 152 0
 476 0002 0024     		movs	r4, #0
 477 0004 13E0     		b	.L33
 478              	.LVL60:
 479              	.L34:
 153:main.c        ****         signal[i] = sin(2*PI*i/N);
 480              		.loc 1 153 0 discriminator 3
 481 0006 2046     		mov	r0, r4
 482 0008 FFF7FEFF 		bl	__aeabi_i2d
 483              	.LVL61:
 484 000c 0AA3     		adr	r3, .L36
 485 000e D3E90023 		ldrd	r2, [r3]
 486 0012 FFF7FEFF 		bl	__aeabi_dmul
 487              	.LVL62:
 488 0016 0022     		movs	r2, #0
 489 0018 094B     		ldr	r3, .L36+8
 490 001a FFF7FEFF 		bl	__aeabi_ddiv
 491              	.LVL63:
 492 001e FFF7FEFF 		bl	sin
 493              	.LVL64:
 494 0022 FFF7FEFF 		bl	__aeabi_d2f
 495              	.LVL65:
 496 0026 074B     		ldr	r3, .L36+12
 497 0028 43F82400 		str	r0, [r3, r4, lsl #2]	@ float
 152:main.c        ****     for(int i = 0; i < N;i++){
 498              		.loc 1 152 0 discriminator 3
 499 002c 0134     		adds	r4, r4, #1
 500              	.LVL66:
 501              	.L33:
 152:main.c        ****     for(int i = 0; i < N;i++){
 502              		.loc 1 152 0 is_stmt 0 discriminator 1
 503 002e 632C     		cmp	r4, #99
 504 0030 E9DD     		ble	.L34
 505              	.LBE2:
 154:main.c        ****     }
 155:main.c        **** return 0; 
 156:main.c        **** }
 506              		.loc 1 156 0 is_stmt 1
 507 0032 0020     		movs	r0, #0
 508 0034 10BD     		pop	{r4, pc}
 509              	.LVL67:
 510              	.L37:
 511 0036 00BF     		.align	3
 512              	.L36:
 513 0038 6E861BF0 		.word	-266631570
 514 003c F9211940 		.word	1075388921
 515 0040 00005940 		.word	1079574528
 516 0044 00000000 		.word	signal
 517              		.cfi_endproc
 518              	.LFE72:
 519              		.size	fill, .-fill
 520              		.section	.text.main,"ax",%progbits
ARM GAS  C:\Users\thoma\AppData\Local\Temp\ccAOuQVk.s 			page 13


 521              		.align	2
 522              		.global	main
 523              		.thumb
 524              		.thumb_func
 525              		.type	main, %function
 526              	main:
 527              	.LFB66:
  67:main.c        ****     CyGlobalIntEnable; /* Enable global interrupts. */
 528              		.loc 1 67 0
 529              		.cfi_startproc
 530              		@ Volatile: function does not return.
 531              		@ args = 0, pretend = 0, frame = 0
 532              		@ frame_needed = 0, uses_anonymous_args = 0
 533 0000 08B5     		push	{r3, lr}
 534              		.cfi_def_cfa_offset 8
 535              		.cfi_offset 3, -8
 536              		.cfi_offset 14, -4
  68:main.c        **** 
 537              		.loc 1 68 0
 538              		.syntax unified
 539              	@ 68 "main.c" 1
 540 0002 62B6     		CPSIE   i
 541              	@ 0 "" 2
  72:main.c        ****     
 542              		.loc 1 72 0
 543              		.thumb
 544              		.syntax unified
 545 0004 FFF7FEFF 		bl	Start_F
 546              	.LVL68:
  74:main.c        ****     
 547              		.loc 1 74 0
 548 0008 FFF7FEFF 		bl	LED_off
 549              	.LVL69:
  76:main.c        ****     TimerDAC_Start(); 
 550              		.loc 1 76 0
 551 000c FFF7FEFF 		bl	Timer_Start
 552              	.LVL70:
  77:main.c        ****     DAC_Start();
 553              		.loc 1 77 0
 554 0010 FFF7FEFF 		bl	TimerDAC_Start
 555              	.LVL71:
  78:main.c        ****     DAC_SetValue(0);
 556              		.loc 1 78 0
 557 0014 FFF7FEFF 		bl	DAC_Start
 558              	.LVL72:
  79:main.c        ****     
 559              		.loc 1 79 0
 560 0018 0020     		movs	r0, #0
 561 001a FFF7FEFF 		bl	DAC_SetValue
 562              	.LVL73:
  81:main.c        ****     isr_led_StartEx(LED);
 563              		.loc 1 81 0
 564 001e 0448     		ldr	r0, .L41
 565 0020 FFF7FEFF 		bl	isr_dac_StartEx
 566              	.LVL74:
  82:main.c        ****     
 567              		.loc 1 82 0
ARM GAS  C:\Users\thoma\AppData\Local\Temp\ccAOuQVk.s 			page 14


 568 0024 0348     		ldr	r0, .L41+4
 569 0026 FFF7FEFF 		bl	isr_led_StartEx
 570              	.LVL75:
  84:main.c        ****     
 571              		.loc 1 84 0
 572 002a FFF7FEFF 		bl	fill
 573              	.LVL76:
 574              	.L39:
 575 002e FEE7     		b	.L39
 576              	.L42:
 577              		.align	2
 578              	.L41:
 579 0030 00000000 		.word	Sound
 580 0034 00000000 		.word	LED
 581              		.cfi_endproc
 582              	.LFE66:
 583              		.size	main, .-main
 584              		.section	.text.synthesizer,"ax",%progbits
 585              		.align	2
 586              		.global	synthesizer
 587              		.thumb
 588              		.thumb_func
 589              		.type	synthesizer, %function
 590              	synthesizer:
 591              	.LFB73:
 157:main.c        **** 
 158:main.c        **** int synthesizer(){
 592              		.loc 1 158 0
 593              		.cfi_startproc
 594              		@ args = 0, pretend = 0, frame = 0
 595              		@ frame_needed = 0, uses_anonymous_args = 0
 596 0000 10B5     		push	{r4, lr}
 597              		.cfi_def_cfa_offset 8
 598              		.cfi_offset 4, -8
 599              		.cfi_offset 14, -4
 159:main.c        ****     if(0x80 & Timer_ReadStatusRegister()){
 600              		.loc 1 159 0
 601 0002 FFF7FEFF 		bl	Timer_ReadStatusRegister
 602              	.LVL77:
 603 0006 10F0800F 		tst	r0, #128
 604 000a 11D0     		beq	.L44
 160:main.c        ****             if(cpt < 1000){cpt++;}
 605              		.loc 1 160 0
 606 000c 1A4B     		ldr	r3, .L48
 607 000e 5B88     		ldrh	r3, [r3, #2]
 608 0010 B3F57A7F 		cmp	r3, #1000
 609 0014 03D2     		bcs	.L45
 610              		.loc 1 160 0 is_stmt 0 discriminator 1
 611 0016 0133     		adds	r3, r3, #1
 612 0018 174A     		ldr	r2, .L48
 613 001a 5380     		strh	r3, [r2, #2]	@ movhi
 614 001c 08E0     		b	.L44
 615              	.L45:
 161:main.c        ****             else{ LED01_Write( ~ LED01_Read()); cpt = 0; }
 616              		.loc 1 161 0 is_stmt 1
 617 001e FFF7FEFF 		bl	LED01_Read
 618              	.LVL78:
ARM GAS  C:\Users\thoma\AppData\Local\Temp\ccAOuQVk.s 			page 15


 619 0022 C043     		mvns	r0, r0
 620 0024 C0B2     		uxtb	r0, r0
 621 0026 FFF7FEFF 		bl	LED01_Write
 622              	.LVL79:
 623 002a 0022     		movs	r2, #0
 624 002c 124B     		ldr	r3, .L48
 625 002e 5A80     		strh	r2, [r3, #2]	@ movhi
 626              	.L44:
 162:main.c        ****         }
 163:main.c        ****     if(0x80 & TimerDAC_ReadStatusRegister()){
 627              		.loc 1 163 0
 628 0030 FFF7FEFF 		bl	TimerDAC_ReadStatusRegister
 629              	.LVL80:
 630 0034 10F0800F 		tst	r0, #128
 631 0038 1BD0     		beq	.L46
 164:main.c        ****             value = 128 + 128*signal[j];
 632              		.loc 1 164 0
 633 003a 0F4C     		ldr	r4, .L48
 634 003c 2288     		ldrh	r2, [r4]
 635 003e 4FF08641 		mov	r1, #1124073472
 636 0042 0E4B     		ldr	r3, .L48+4
 637 0044 53F82200 		ldr	r0, [r3, r2, lsl #2]	@ float
 638 0048 FFF7FEFF 		bl	__aeabi_fmul
 639              	.LVL81:
 640 004c 4FF08641 		mov	r1, #1124073472
 641 0050 FFF7FEFF 		bl	__aeabi_fadd
 642              	.LVL82:
 643 0054 FFF7FEFF 		bl	__aeabi_f2uiz
 644              	.LVL83:
 645 0058 C0B2     		uxtb	r0, r0
 646 005a 094B     		ldr	r3, .L48+8
 647 005c 1870     		strb	r0, [r3]
 165:main.c        ****             DAC_SetValue(value); 
 648              		.loc 1 165 0
 649 005e FFF7FEFF 		bl	DAC_SetValue
 650              	.LVL84:
 166:main.c        ****             j++;
 651              		.loc 1 166 0
 652 0062 2388     		ldrh	r3, [r4]
 653 0064 0133     		adds	r3, r3, #1
 654 0066 9BB2     		uxth	r3, r3
 655 0068 2380     		strh	r3, [r4]	@ movhi
 167:main.c        ****             if(j == N){ j = 0;}
 656              		.loc 1 167 0
 657 006a 642B     		cmp	r3, #100
 658 006c 01D1     		bne	.L46
 659              		.loc 1 167 0 is_stmt 0 discriminator 1
 660 006e 0022     		movs	r2, #0
 661 0070 2280     		strh	r2, [r4]	@ movhi
 662              	.L46:
 168:main.c        ****         }
 169:main.c        **** 
 170:main.c        **** return 0;
 171:main.c        **** }
 663              		.loc 1 171 0 is_stmt 1
 664 0072 0020     		movs	r0, #0
 665 0074 10BD     		pop	{r4, pc}
ARM GAS  C:\Users\thoma\AppData\Local\Temp\ccAOuQVk.s 			page 16


 666              	.L49:
 667 0076 00BF     		.align	2
 668              	.L48:
 669 0078 00000000 		.word	.LANCHOR0
 670 007c 00000000 		.word	signal
 671 0080 00000000 		.word	value
 672              		.cfi_endproc
 673              	.LFE73:
 674              		.size	synthesizer, .-synthesizer
 675              		.global	cpt
 676              		.comm	value,1,1
 677              		.global	j
 678              		.comm	signal,400,4
 679              		.bss
 680              		.align	1
 681              		.set	.LANCHOR0,. + 0
 682              		.type	j, %object
 683              		.size	j, 2
 684              	j:
 685 0000 0000     		.space	2
 686              		.type	cpt, %object
 687              		.size	cpt, 2
 688              	cpt:
 689 0002 0000     		.space	2
 690              		.text
 691              	.Letext0:
 692              		.file 2 "d:\\psoc\\psoc creator\\4.4\\psoc creator\\import\\gnu\\arm\\5.4.1\\arm-none-eabi\\includ
 693              		.file 3 "d:\\psoc\\psoc creator\\4.4\\psoc creator\\import\\gnu\\arm\\5.4.1\\arm-none-eabi\\includ
 694              		.file 4 "Generated_Source\\PSoC5/core_cm3.h"
 695              		.file 5 "Generated_Source\\PSoC5/DAC.h"
 696              		.file 6 "Generated_Source\\PSoC5/TimerDAC.h"
 697              		.file 7 "Generated_Source\\PSoC5/LED01.h"
 698              		.file 8 "Generated_Source\\PSoC5/Timer.h"
 699              		.file 9 "Generated_Source\\PSoC5/LCD.h"
 700              		.file 10 "Generated_Source\\PSoC5/ADC.h"
 701              		.file 11 "keypad.h"
 702              		.file 12 "Generated_Source\\PSoC5/CyLib.h"
 703              		.file 13 "Generated_Source\\PSoC5/LED02.h"
 704              		.file 14 "Generated_Source\\PSoC5/LED03.h"
 705              		.file 15 "Generated_Source\\PSoC5/LED04.h"
 706              		.file 16 "Generated_Source\\PSoC5/isr_dac.h"
 707              		.file 17 "Generated_Source\\PSoC5/isr_led.h"
 708              		.file 18 "d:\\psoc\\psoc creator\\4.4\\psoc creator\\import\\gnu\\arm\\5.4.1\\arm-none-eabi\\inclu