ARM GAS  C:\Users\thoma\AppData\Local\Temp\ccQGdvu7.s 			page 1


   1              		.syntax unified
   2              		.cpu cortex-m3
   3              		.fpu softvfp
   4              		.eabi_attribute 20, 1
   5              		.eabi_attribute 21, 1
   6              		.eabi_attribute 23, 3
   7              		.eabi_attribute 24, 1
   8              		.eabi_attribute 25, 1
   9              		.eabi_attribute 26, 1
  10              		.eabi_attribute 30, 1
  11              		.eabi_attribute 34, 1
  12              		.eabi_attribute 18, 4
  13              		.thumb
  14              		.syntax unified
  15              		.file	"main.c"
  16              		.text
  17              	.Ltext0:
  18              		.cfi_sections	.debug_frame
  19              		.section	.text.isr_uart_rx_Handler,"ax",%progbits
  20              		.align	2
  21              		.global	isr_uart_rx_Handler
  22              		.thumb
  23              		.thumb_func
  24              		.type	isr_uart_rx_Handler, %function
  25              	isr_uart_rx_Handler:
  26              	.LFB64:
  27              		.file 1 "main.c"
   1:main.c        **** /* ========================================
   2:main.c        ****  *
   3:main.c        ****  * Copyright YOUR COMPANY, THE YEAR
   4:main.c        ****  * All Rights Reserved
   5:main.c        ****  * UNPUBLISHED, LICENSED SOFTWARE.
   6:main.c        ****  *
   7:main.c        ****  * CONFIDENTIAL AND PROPRIETARY INFORMATION
   8:main.c        ****  * WHICH IS THE PROPERTY OF your company.
   9:main.c        ****  *
  10:main.c        ****  * ========================================
  11:main.c        **** */
  12:main.c        **** #include "project.h"
  13:main.c        **** 
  14:main.c        **** #define PI 3.14159
  15:main.c        **** #define N 7
  16:main.c        **** 
  17:main.c        **** int Start_F(){
  18:main.c        ****     
  19:main.c        ****     LCD_Start();
  20:main.c        ****     LCD_DisplayOn();
  21:main.c        ****     LCD_ClearDisplay();
  22:main.c        ****     //end for LCD
  23:main.c        ****     
  24:main.c        ****     ADC_Start();
  25:main.c        ****     //Timer_start(); 
  26:main.c        ****     return 0; 
  27:main.c        **** }
  28:main.c        **** 
  29:main.c        **** 
  30:main.c        **** int LED_off();
ARM GAS  C:\Users\thoma\AppData\Local\Temp\ccQGdvu7.s 			page 2


  31:main.c        **** 
  32:main.c        **** uint8 j = 0; 
  33:main.c        **** uint8 rxData;
  34:main.c        **** 
  35:main.c        **** CY_ISR ( isr_uart_rx_Handler ) {
  28              		.loc 1 35 0
  29              		.cfi_startproc
  30              		@ args = 0, pretend = 0, frame = 0
  31              		@ frame_needed = 0, uses_anonymous_args = 0
  32 0000 70B5     		push	{r4, r5, r6, lr}
  33              		.cfi_def_cfa_offset 16
  34              		.cfi_offset 4, -16
  35              		.cfi_offset 5, -12
  36              		.cfi_offset 6, -8
  37              		.cfi_offset 14, -4
  38              	.L4:
  36:main.c        **** uint8_t status = 0;
  37:main.c        **** do{
  38:main.c        ****     // Checks if no UART Rx errors
  39:main.c        ****     status = UART_ReadRxStatus ();
  39              		.loc 1 39 0
  40 0002 FFF7FEFF 		bl	UART_ReadRxStatus
  41              	.LVL0:
  42 0006 0446     		mov	r4, r0
  43              	.LVL1:
  40:main.c        ****     if (( status & UART_RX_STS_PAR_ERROR ) |
  44              		.loc 1 40 0
  45 0008 10F01E0F 		tst	r0, #30
  46 000c 06D0     		beq	.L2
  41:main.c        ****     ( status & UART_RX_STS_STOP_ERROR ) |
  42:main.c        ****     ( status & UART_RX_STS_BREAK ) |
  43:main.c        ****     ( status & UART_RX_STS_OVERRUN ) ) {
  44:main.c        ****         // Parity , framing , break or overrun error
  45:main.c        ****         LCD_Position (1 ,0);
  47              		.loc 1 45 0
  48 000e 0021     		movs	r1, #0
  49 0010 0120     		movs	r0, #1
  50              	.LVL2:
  51 0012 FFF7FEFF 		bl	LCD_Position
  52              	.LVL3:
  46:main.c        ****         LCD_PrintString (" UART err");
  53              		.loc 1 46 0
  54 0016 1748     		ldr	r0, .L6
  55 0018 FFF7FEFF 		bl	LCD_PrintString
  56              	.LVL4:
  57              	.L2:
  58 001c 04F02004 		and	r4, r4, #32
  47:main.c        ****     }
  48:main.c        ****     // Check that rx buffer is not empty and get rx data
  49:main.c        ****     if ( ( status & UART_RX_STS_FIFO_NOTEMPTY ) != 0){
  59              		.loc 1 49 0
  60 0020 04F0FF05 		and	r5, r4, #255
  61 0024 14B3     		cbz	r4, .L3
  50:main.c        ****             rxData = UART_ReadRxData();
  62              		.loc 1 50 0
  63 0026 FFF7FEFF 		bl	UART_ReadRxData
  64              	.LVL5:
ARM GAS  C:\Users\thoma\AppData\Local\Temp\ccQGdvu7.s 			page 3


  65 002a 134E     		ldr	r6, .L6+4
  66 002c 3070     		strb	r0, [r6]
  51:main.c        ****             UART_PutChar(rxData);
  67              		.loc 1 51 0
  68 002e FFF7FEFF 		bl	UART_PutChar
  69              	.LVL6:
  52:main.c        ****             LCD_Position(1,0);
  70              		.loc 1 52 0
  71 0032 0021     		movs	r1, #0
  72 0034 0120     		movs	r0, #1
  73 0036 FFF7FEFF 		bl	LCD_Position
  74              	.LVL7:
  53:main.c        ****             
  54:main.c        ****             LCD_Position(1,j);
  75              		.loc 1 54 0
  76 003a 104C     		ldr	r4, .L6+8
  77 003c 2178     		ldrb	r1, [r4]	@ zero_extendqisi2
  78 003e 0120     		movs	r0, #1
  79 0040 FFF7FEFF 		bl	LCD_Position
  80              	.LVL8:
  55:main.c        ****             LCD_PutChar(rxData);
  81              		.loc 1 55 0
  82 0044 3078     		ldrb	r0, [r6]	@ zero_extendqisi2
  83 0046 FFF7FEFF 		bl	LCD_PutChar
  84              	.LVL9:
  56:main.c        ****             LED01_Write(~LED01_Read());
  85              		.loc 1 56 0
  86 004a FFF7FEFF 		bl	LED01_Read
  87              	.LVL10:
  88 004e C043     		mvns	r0, r0
  89 0050 C0B2     		uxtb	r0, r0
  90 0052 FFF7FEFF 		bl	LED01_Write
  91              	.LVL11:
  57:main.c        ****             j++; 
  92              		.loc 1 57 0
  93 0056 2378     		ldrb	r3, [r4]	@ zero_extendqisi2
  94 0058 0133     		adds	r3, r3, #1
  95 005a DBB2     		uxtb	r3, r3
  96 005c 2370     		strb	r3, [r4]
  58:main.c        ****             if ( j == N){j = 0; LCD_PrintString("     ");}
  97              		.loc 1 58 0
  98 005e 072B     		cmp	r3, #7
  99 0060 04D1     		bne	.L3
 100              		.loc 1 58 0 is_stmt 0 discriminator 1
 101 0062 0022     		movs	r2, #0
 102 0064 2270     		strb	r2, [r4]
 103 0066 0648     		ldr	r0, .L6+12
 104 0068 FFF7FEFF 		bl	LCD_PrintString
 105              	.LVL12:
 106              	.L3:
  59:main.c        ****     }
  60:main.c        ****     } while (( status & UART_RX_STS_FIFO_NOTEMPTY ) != 0);
 107              		.loc 1 60 0 is_stmt 1
 108 006c 002D     		cmp	r5, #0
 109 006e C8D1     		bne	.L4
  61:main.c        **** }
 110              		.loc 1 61 0
ARM GAS  C:\Users\thoma\AppData\Local\Temp\ccQGdvu7.s 			page 4


 111 0070 70BD     		pop	{r4, r5, r6, pc}
 112              	.L7:
 113 0072 00BF     		.align	2
 114              	.L6:
 115 0074 00000000 		.word	.LC0
 116 0078 00000000 		.word	rxData
 117 007c 00000000 		.word	.LANCHOR0
 118 0080 0C000000 		.word	.LC1
 119              		.cfi_endproc
 120              	.LFE64:
 121              		.size	isr_uart_rx_Handler, .-isr_uart_rx_Handler
 122              		.section	.text.Start_F,"ax",%progbits
 123              		.align	2
 124              		.global	Start_F
 125              		.thumb
 126              		.thumb_func
 127              		.type	Start_F, %function
 128              	Start_F:
 129              	.LFB63:
  17:main.c        ****     
 130              		.loc 1 17 0
 131              		.cfi_startproc
 132              		@ args = 0, pretend = 0, frame = 0
 133              		@ frame_needed = 0, uses_anonymous_args = 0
 134 0000 08B5     		push	{r3, lr}
 135              		.cfi_def_cfa_offset 8
 136              		.cfi_offset 3, -8
 137              		.cfi_offset 14, -4
  19:main.c        ****     LCD_DisplayOn();
 138              		.loc 1 19 0
 139 0002 FFF7FEFF 		bl	LCD_Start
 140              	.LVL13:
  20:main.c        ****     LCD_ClearDisplay();
 141              		.loc 1 20 0
 142 0006 0C20     		movs	r0, #12
 143 0008 FFF7FEFF 		bl	LCD_WriteControl
 144              	.LVL14:
  21:main.c        ****     //end for LCD
 145              		.loc 1 21 0
 146 000c 0120     		movs	r0, #1
 147 000e FFF7FEFF 		bl	LCD_WriteControl
 148              	.LVL15:
  24:main.c        ****     //Timer_start(); 
 149              		.loc 1 24 0
 150 0012 FFF7FEFF 		bl	ADC_Start
 151              	.LVL16:
  27:main.c        **** 
 152              		.loc 1 27 0
 153 0016 0020     		movs	r0, #0
 154 0018 08BD     		pop	{r3, pc}
 155              		.cfi_endproc
 156              	.LFE63:
 157              		.size	Start_F, .-Start_F
 158 001a 00BF     		.section	.text.LED_off,"ax",%progbits
 159              		.align	2
 160              		.global	LED_off
 161              		.thumb
ARM GAS  C:\Users\thoma\AppData\Local\Temp\ccQGdvu7.s 			page 5


 162              		.thumb_func
 163              		.type	LED_off, %function
 164              	LED_off:
 165              	.LFB66:
  62:main.c        **** 
  63:main.c        **** int main(void)
  64:main.c        **** {
  65:main.c        ****     CyGlobalIntEnable; /* Enable global interrupts. */
  66:main.c        **** 
  67:main.c        ****     /* Place your initialization/startup code here (e.g. MyInst_Start()) */
  68:main.c        ****     
  69:main.c        ****     Start_F(); 
  70:main.c        ****     Timer_Start();
  71:main.c        ****     PWM_Start(); 
  72:main.c        ****     ADC_Start();
  73:main.c        ****     LCD_Start();
  74:main.c        ****     UART_Start(); 
  75:main.c        ****     
  76:main.c        ****     uint16_t pwm_period = 48000;
  77:main.c        ****     uint32_t val_CMP = 2400;
  78:main.c        ****     uint32_t val_adc;
  79:main.c        ****     ADC_StartConvert();
  80:main.c        ****     
  81:main.c        ****     PWM_WritePeriod(pwm_period); 
  82:main.c        ****     PWM_WriteCompare(val_CMP);
  83:main.c        **** 
  84:main.c        ****     LED_off();
  85:main.c        ****     isr_uart_rx_StartEx(isr_uart_rx_Handler);
  86:main.c        **** 
  87:main.c        ****     UART_PutString("Wesh drare\n"); 
  88:main.c        ****     LED03_Write(1);  
  89:main.c        ****  
  90:main.c        ****     for(;;)
  91:main.c        ****     {
  92:main.c        ****    
  93:main.c        ****         
  94:main.c        ****         /*
  95:main.c        ****         if (ADC_IsEndConversion(ADC_RETURN_STATUS)){
  96:main.c        ****             val_adc = ADC_GetResult32();
  97:main.c        ****             val_CMP = ((val_adc /(float)0xFFFF) + 1 ) * 2400; //Conversion from [0x0000,0xFFFF] to 
  98:main.c        ****             LCD_Position(0,0);
  99:main.c        ****             LCD_PrintNumber(val_CMP);
 100:main.c        ****             PWM_WriteCompare(val_CMP);
 101:main.c        ****             CyDelay(500);
 102:main.c        ****           
 103:main.c        ****         }*/
 104:main.c        ****         
 105:main.c        ****         
 106:main.c        ****     }
 107:main.c        **** }
 108:main.c        **** 
 109:main.c        **** 
 110:main.c        **** int LED_off(){
 166              		.loc 1 110 0
 167              		.cfi_startproc
 168              		@ args = 0, pretend = 0, frame = 0
 169              		@ frame_needed = 0, uses_anonymous_args = 0
ARM GAS  C:\Users\thoma\AppData\Local\Temp\ccQGdvu7.s 			page 6


 170 0000 08B5     		push	{r3, lr}
 171              		.cfi_def_cfa_offset 8
 172              		.cfi_offset 3, -8
 173              		.cfi_offset 14, -4
 111:main.c        ****     LED01_Write(0);
 174              		.loc 1 111 0
 175 0002 0020     		movs	r0, #0
 176 0004 FFF7FEFF 		bl	LED01_Write
 177              	.LVL17:
 112:main.c        ****     LED02_Write(0);
 178              		.loc 1 112 0
 179 0008 0020     		movs	r0, #0
 180 000a FFF7FEFF 		bl	LED02_Write
 181              	.LVL18:
 113:main.c        ****     LED03_Write(0);
 182              		.loc 1 113 0
 183 000e 0020     		movs	r0, #0
 184 0010 FFF7FEFF 		bl	LED03_Write
 185              	.LVL19:
 114:main.c        ****     LED04_Write(0);
 186              		.loc 1 114 0
 187 0014 0020     		movs	r0, #0
 188 0016 FFF7FEFF 		bl	LED04_Write
 189              	.LVL20:
 115:main.c        ****     
 116:main.c        ****     return 0; 
 117:main.c        **** }
 190              		.loc 1 117 0
 191 001a 0020     		movs	r0, #0
 192 001c 08BD     		pop	{r3, pc}
 193              		.cfi_endproc
 194              	.LFE66:
 195              		.size	LED_off, .-LED_off
 196 001e 00BF     		.section	.text.main,"ax",%progbits
 197              		.align	2
 198              		.global	main
 199              		.thumb
 200              		.thumb_func
 201              		.type	main, %function
 202              	main:
 203              	.LFB65:
  64:main.c        ****     CyGlobalIntEnable; /* Enable global interrupts. */
 204              		.loc 1 64 0
 205              		.cfi_startproc
 206              		@ args = 0, pretend = 0, frame = 0
 207              		@ frame_needed = 0, uses_anonymous_args = 0
 208 0000 08B5     		push	{r3, lr}
 209              		.cfi_def_cfa_offset 8
 210              		.cfi_offset 3, -8
 211              		.cfi_offset 14, -4
  65:main.c        **** 
 212              		.loc 1 65 0
 213              		.syntax unified
 214              	@ 65 "main.c" 1
 215 0002 62B6     		CPSIE   i
 216              	@ 0 "" 2
  69:main.c        ****     Timer_Start();
ARM GAS  C:\Users\thoma\AppData\Local\Temp\ccQGdvu7.s 			page 7


 217              		.loc 1 69 0
 218              		.thumb
 219              		.syntax unified
 220 0004 FFF7FEFF 		bl	Start_F
 221              	.LVL21:
  70:main.c        ****     PWM_Start(); 
 222              		.loc 1 70 0
 223 0008 FFF7FEFF 		bl	Timer_Start
 224              	.LVL22:
  71:main.c        ****     ADC_Start();
 225              		.loc 1 71 0
 226 000c FFF7FEFF 		bl	PWM_Start
 227              	.LVL23:
  72:main.c        ****     LCD_Start();
 228              		.loc 1 72 0
 229 0010 FFF7FEFF 		bl	ADC_Start
 230              	.LVL24:
  73:main.c        ****     UART_Start(); 
 231              		.loc 1 73 0
 232 0014 FFF7FEFF 		bl	LCD_Start
 233              	.LVL25:
  74:main.c        ****     
 234              		.loc 1 74 0
 235 0018 FFF7FEFF 		bl	UART_Start
 236              	.LVL26:
  79:main.c        ****     
 237              		.loc 1 79 0
 238 001c FFF7FEFF 		bl	ADC_StartConvert
 239              	.LVL27:
  81:main.c        ****     PWM_WriteCompare(val_CMP);
 240              		.loc 1 81 0
 241 0020 4BF68030 		movw	r0, #48000
 242 0024 FFF7FEFF 		bl	PWM_WritePeriod
 243              	.LVL28:
  82:main.c        **** 
 244              		.loc 1 82 0
 245 0028 4FF41660 		mov	r0, #2400
 246 002c FFF7FEFF 		bl	PWM_WriteCompare
 247              	.LVL29:
  84:main.c        ****     isr_uart_rx_StartEx(isr_uart_rx_Handler);
 248              		.loc 1 84 0
 249 0030 FFF7FEFF 		bl	LED_off
 250              	.LVL30:
  85:main.c        **** 
 251              		.loc 1 85 0
 252 0034 0448     		ldr	r0, .L15
 253 0036 FFF7FEFF 		bl	isr_uart_rx_StartEx
 254              	.LVL31:
  87:main.c        ****     LED03_Write(1);  
 255              		.loc 1 87 0
 256 003a 0448     		ldr	r0, .L15+4
 257 003c FFF7FEFF 		bl	UART_PutString
 258              	.LVL32:
  88:main.c        ****  
 259              		.loc 1 88 0
 260 0040 0120     		movs	r0, #1
 261 0042 FFF7FEFF 		bl	LED03_Write
ARM GAS  C:\Users\thoma\AppData\Local\Temp\ccQGdvu7.s 			page 8


 262              	.LVL33:
 263              	.L13:
 264 0046 FEE7     		b	.L13
 265              	.L16:
 266              		.align	2
 267              	.L15:
 268 0048 00000000 		.word	isr_uart_rx_Handler
 269 004c 14000000 		.word	.LC2
 270              		.cfi_endproc
 271              	.LFE65:
 272              		.size	main, .-main
 273              		.comm	rxData,1,1
 274              		.global	j
 275              		.section	.rodata.str1.4,"aMS",%progbits,1
 276              		.align	2
 277              	.LC0:
 278 0000 20554152 		.ascii	" UART err\000"
 278      54206572 
 278      7200
 279 000a 0000     		.space	2
 280              	.LC1:
 281 000c 20202020 		.ascii	"     \000"
 281      2000
 282 0012 0000     		.space	2
 283              	.LC2:
 284 0014 57657368 		.ascii	"Wesh drare\012\000"
 284      20647261 
 284      72650A00 
 285              		.bss
 286              		.set	.LANCHOR0,. + 0
 287              		.type	j, %object
 288              		.size	j, 1
 289              	j:
 290 0000 00       		.space	1
 291              		.text
 292              	.Letext0:
 293              		.file 2 "d:\\psoc\\psoc creator\\4.4\\psoc creator\\import\\gnu\\arm\\5.4.1\\arm-none-eabi\\includ
 294              		.file 3 "d:\\psoc\\psoc creator\\4.4\\psoc creator\\import\\gnu\\arm\\5.4.1\\arm-none-eabi\\includ
 295              		.file 4 "Generated_Source\\PSoC5/cytypes.h"
 296              		.file 5 "Generated_Source\\PSoC5/core_cm3.h"
 297              		.file 6 "Generated_Source\\PSoC5/UART.h"
 298              		.file 7 "Generated_Source\\PSoC5/LCD.h"
 299              		.file 8 "Generated_Source\\PSoC5/LED01.h"
 300              		.file 9 "Generated_Source\\PSoC5/ADC.h"
 301              		.file 10 "Generated_Source\\PSoC5/LED02.h"
 302              		.file 11 "Generated_Source\\PSoC5/LED03.h"
 303              		.file 12 "Generated_Source\\PSoC5/LED04.h"
 304              		.file 13 "Generated_Source\\PSoC5/Timer.h"
 305              		.file 14 "Generated_Source\\PSoC5/PWM.h"
 306              		.file 15 "Generated_Source\\PSoC5/isr_uart_rx.h"