ARM GAS  C:\Users\thoma\AppData\Local\Temp\ccYbUoSw.s 			page 1


   1              		.syntax unified
   2              		.cpu cortex-m3
   3              		.fpu softvfp
   4              		.eabi_attribute 20, 1
   5              		.eabi_attribute 21, 1
   6              		.eabi_attribute 23, 3
   7              		.eabi_attribute 24, 1
   8              		.eabi_attribute 25, 1
   9              		.eabi_attribute 26, 1
  10              		.eabi_attribute 30, 1
  11              		.eabi_attribute 34, 1
  12              		.eabi_attribute 18, 4
  13              		.thumb
  14              		.syntax unified
  15              		.file	"main.c"
  16              		.text
  17              	.Ltext0:
  18              		.cfi_sections	.debug_frame
  19              		.section	.text.Start_F,"ax",%progbits
  20              		.align	2
  21              		.global	Start_F
  22              		.thumb
  23              		.thumb_func
  24              		.type	Start_F, %function
  25              	Start_F:
  26              	.LFB63:
  27              		.file 1 "main.c"
   1:main.c        **** /* ========================================
   2:main.c        ****  *
   3:main.c        ****  * Copyright YOUR COMPANY, THE YEAR
   4:main.c        ****  * All Rights Reserved
   5:main.c        ****  * UNPUBLISHED, LICENSED SOFTWARE.
   6:main.c        ****  *
   7:main.c        ****  * CONFIDENTIAL AND PROPRIETARY INFORMATION
   8:main.c        ****  * WHICH IS THE PROPERTY OF your company.
   9:main.c        ****  *
  10:main.c        ****  * ========================================
  11:main.c        **** */
  12:main.c        **** #include "project.h"
  13:main.c        **** #include "keypad.h"
  14:main.c        **** 
  15:main.c        **** int Start_F(){
  28              		.loc 1 15 0
  29              		.cfi_startproc
  30              		@ args = 0, pretend = 0, frame = 0
  31              		@ frame_needed = 0, uses_anonymous_args = 0
  32 0000 08B5     		push	{r3, lr}
  33              		.cfi_def_cfa_offset 8
  34              		.cfi_offset 3, -8
  35              		.cfi_offset 14, -4
  16:main.c        ****     
  17:main.c        ****     LCD_Start();
  36              		.loc 1 17 0
  37 0002 FFF7FEFF 		bl	LCD_Start
  38              	.LVL0:
  18:main.c        ****     LCD_DisplayOn();
  39              		.loc 1 18 0
ARM GAS  C:\Users\thoma\AppData\Local\Temp\ccYbUoSw.s 			page 2


  40 0006 0C20     		movs	r0, #12
  41 0008 FFF7FEFF 		bl	LCD_WriteControl
  42              	.LVL1:
  19:main.c        ****     LCD_ClearDisplay();
  43              		.loc 1 19 0
  44 000c 0120     		movs	r0, #1
  45 000e FFF7FEFF 		bl	LCD_WriteControl
  46              	.LVL2:
  20:main.c        ****     //end for LCD
  21:main.c        ****     
  22:main.c        ****     ADC_Start(); 
  47              		.loc 1 22 0
  48 0012 FFF7FEFF 		bl	ADC_Start
  49              	.LVL3:
  23:main.c        ****     return 0; 
  24:main.c        **** }
  50              		.loc 1 24 0
  51 0016 0020     		movs	r0, #0
  52 0018 08BD     		pop	{r3, pc}
  53              		.cfi_endproc
  54              	.LFE63:
  55              		.size	Start_F, .-Start_F
  56 001a 00BF     		.section	.text.beacon,"ax",%progbits
  57              		.align	2
  58              		.global	beacon
  59              		.thumb
  60              		.thumb_func
  61              		.type	beacon, %function
  62              	beacon:
  63              	.LFB64:
  25:main.c        **** 
  26:main.c        **** int beacon(){
  64              		.loc 1 26 0
  65              		.cfi_startproc
  66              		@ args = 0, pretend = 0, frame = 0
  67              		@ frame_needed = 0, uses_anonymous_args = 0
  68 0000 08B5     		push	{r3, lr}
  69              		.cfi_def_cfa_offset 8
  70              		.cfi_offset 3, -8
  71              		.cfi_offset 14, -4
  27:main.c        ****         
  28:main.c        ****     // Test LEDs 
  29:main.c        ****     LED01_Write( ~ LED01_Read());
  72              		.loc 1 29 0
  73 0002 FFF7FEFF 		bl	LED01_Read
  74              	.LVL4:
  75 0006 C043     		mvns	r0, r0
  76 0008 C0B2     		uxtb	r0, r0
  77 000a FFF7FEFF 		bl	LED01_Write
  78              	.LVL5:
  30:main.c        ****     LED02_Write( ~ LED02_Read());
  79              		.loc 1 30 0
  80 000e FFF7FEFF 		bl	LED02_Read
  81              	.LVL6:
  82 0012 C043     		mvns	r0, r0
  83 0014 C0B2     		uxtb	r0, r0
  84 0016 FFF7FEFF 		bl	LED02_Write
ARM GAS  C:\Users\thoma\AppData\Local\Temp\ccYbUoSw.s 			page 3


  85              	.LVL7:
  31:main.c        **** //    CyDelay(500);
  32:main.c        ****     return 0; 
  33:main.c        **** }
  86              		.loc 1 33 0
  87 001a 0020     		movs	r0, #0
  88 001c 08BD     		pop	{r3, pc}
  89              		.cfi_endproc
  90              	.LFE64:
  91              		.size	beacon, .-beacon
  92 001e 00BF     		.section	.text.verif_cross,"ax",%progbits
  93              		.align	2
  94              		.global	verif_cross
  95              		.thumb
  96              		.thumb_func
  97              		.type	verif_cross, %function
  98              	verif_cross:
  99              	.LFB65:
  34:main.c        **** 
  35:main.c        **** int verif_cross(){
 100              		.loc 1 35 0
 101              		.cfi_startproc
 102              		@ args = 0, pretend = 0, frame = 0
 103              		@ frame_needed = 0, uses_anonymous_args = 0
 104 0000 08B5     		push	{r3, lr}
 105              		.cfi_def_cfa_offset 8
 106              		.cfi_offset 3, -8
 107              		.cfi_offset 14, -4
  36:main.c        ****     LED03_Write( DOWN_Read());
 108              		.loc 1 36 0
 109 0002 FFF7FEFF 		bl	DOWN_Read
 110              	.LVL8:
 111 0006 FFF7FEFF 		bl	LED03_Write
 112              	.LVL9:
  37:main.c        ****     LED04_Write( TOP_Read()); 
 113              		.loc 1 37 0
 114 000a FFF7FEFF 		bl	TOP_Read
 115              	.LVL10:
 116 000e FFF7FEFF 		bl	LED04_Write
 117              	.LVL11:
  38:main.c        ****     CyDelay(100);
 118              		.loc 1 38 0
 119 0012 6420     		movs	r0, #100
 120 0014 FFF7FEFF 		bl	CyDelay
 121              	.LVL12:
  39:main.c        ****     return 0; 
  40:main.c        **** }
 122              		.loc 1 40 0
 123 0018 0020     		movs	r0, #0
 124 001a 08BD     		pop	{r3, pc}
 125              		.cfi_endproc
 126              	.LFE65:
 127              		.size	verif_cross, .-verif_cross
 128              		.section	.text.print_key,"ax",%progbits
 129              		.align	2
 130              		.global	print_key
 131              		.thumb
ARM GAS  C:\Users\thoma\AppData\Local\Temp\ccYbUoSw.s 			page 4


 132              		.thumb_func
 133              		.type	print_key, %function
 134              	print_key:
 135              	.LFB66:
  41:main.c        **** 
  42:main.c        **** int print_key(){
 136              		.loc 1 42 0
 137              		.cfi_startproc
 138              		@ args = 0, pretend = 0, frame = 0
 139              		@ frame_needed = 0, uses_anonymous_args = 0
 140 0000 08B5     		push	{r3, lr}
 141              		.cfi_def_cfa_offset 8
 142              		.cfi_offset 3, -8
 143              		.cfi_offset 14, -4
  43:main.c        ****    
  44:main.c        ****     
  45:main.c        ****    LCD_Position(0,1); 
 144              		.loc 1 45 0
 145 0002 0121     		movs	r1, #1
 146 0004 0020     		movs	r0, #0
 147 0006 FFF7FEFF 		bl	LCD_Position
 148              	.LVL13:
  46:main.c        ****    LCD_PutChar( keypadScan() );
 149              		.loc 1 46 0
 150 000a FFF7FEFF 		bl	keypadScan
 151              	.LVL14:
 152 000e FFF7FEFF 		bl	LCD_PutChar
 153              	.LVL15:
  47:main.c        ****    CyDelay(100); 
 154              		.loc 1 47 0
 155 0012 6420     		movs	r0, #100
 156 0014 FFF7FEFF 		bl	CyDelay
 157              	.LVL16:
  48:main.c        ****     
  49:main.c        ****     return 0; 
  50:main.c        **** }
 158              		.loc 1 50 0
 159 0018 0020     		movs	r0, #0
 160 001a 08BD     		pop	{r3, pc}
 161              		.cfi_endproc
 162              	.LFE66:
 163              		.size	print_key, .-print_key
 164              		.section	.text.print_keypad,"ax",%progbits
 165              		.align	2
 166              		.global	print_keypad
 167              		.thumb
 168              		.thumb_func
 169              		.type	print_keypad, %function
 170              	print_keypad:
 171              	.LFB68:
  51:main.c        **** 
  52:main.c        **** int LED_off(); 
  53:main.c        **** int LED_control(int); 
  54:main.c        **** int Pot_control(uint32_t); 
  55:main.c        **** int Light_control(uint32_t); 
  56:main.c        **** 
  57:main.c        **** int main(void)
ARM GAS  C:\Users\thoma\AppData\Local\Temp\ccYbUoSw.s 			page 5


  58:main.c        **** {
  59:main.c        ****     CyGlobalIntEnable; /* Enable global interrupts. */
  60:main.c        **** 
  61:main.c        ****     /* Place your initialization/startup code here (e.g. MyInst_Start()) */
  62:main.c        ****     
  63:main.c        ****     Start_F(); 
  64:main.c        ****     
  65:main.c        ****     LED_off();
  66:main.c        ****     ADC_StartConvert(); 
  67:main.c        ****     
  68:main.c        ****     uint32_t potVal = 0; 
  69:main.c        ****     for(;;)
  70:main.c        ****     {
  71:main.c        ****         Light_control(potVal); 
  72:main.c        ****     }
  73:main.c        **** }
  74:main.c        **** 
  75:main.c        **** int print_keypad(){
 172              		.loc 1 75 0
 173              		.cfi_startproc
 174              		@ args = 0, pretend = 0, frame = 0
 175              		@ frame_needed = 0, uses_anonymous_args = 0
 176 0000 08B5     		push	{r3, lr}
 177              		.cfi_def_cfa_offset 8
 178              		.cfi_offset 3, -8
 179              		.cfi_offset 14, -4
  76:main.c        ****     if(keypadScan() != 'z'){
 180              		.loc 1 76 0
 181 0002 FFF7FEFF 		bl	keypadScan
 182              	.LVL17:
 183 0006 7A28     		cmp	r0, #122
 184 0008 0AD0     		beq	.L10
  77:main.c        ****         LCD_ClearDisplay(); 
 185              		.loc 1 77 0
 186 000a 0120     		movs	r0, #1
 187 000c FFF7FEFF 		bl	LCD_WriteControl
 188              	.LVL18:
  78:main.c        ****         LCD_Position(0,1); 
 189              		.loc 1 78 0
 190 0010 0121     		movs	r1, #1
 191 0012 0020     		movs	r0, #0
 192 0014 FFF7FEFF 		bl	LCD_Position
 193              	.LVL19:
  79:main.c        ****         LCD_PutChar( keypadScan());
 194              		.loc 1 79 0
 195 0018 FFF7FEFF 		bl	keypadScan
 196              	.LVL20:
 197 001c FFF7FEFF 		bl	LCD_PutChar
 198              	.LVL21:
 199              	.L10:
  80:main.c        ****     }
  81:main.c        ****     CyDelay(100);  
 200              		.loc 1 81 0
 201 0020 6420     		movs	r0, #100
 202 0022 FFF7FEFF 		bl	CyDelay
 203              	.LVL22:
  82:main.c        ****    
ARM GAS  C:\Users\thoma\AppData\Local\Temp\ccYbUoSw.s 			page 6


  83:main.c        ****     return 0; 
  84:main.c        **** }
 204              		.loc 1 84 0
 205 0026 0020     		movs	r0, #0
 206 0028 08BD     		pop	{r3, pc}
 207              		.cfi_endproc
 208              	.LFE68:
 209              		.size	print_keypad, .-print_keypad
 210 002a 00BF     		.section	.text.LED_off,"ax",%progbits
 211              		.align	2
 212              		.global	LED_off
 213              		.thumb
 214              		.thumb_func
 215              		.type	LED_off, %function
 216              	LED_off:
 217              	.LFB69:
  85:main.c        **** 
  86:main.c        **** int LED_off(){
 218              		.loc 1 86 0
 219              		.cfi_startproc
 220              		@ args = 0, pretend = 0, frame = 0
 221              		@ frame_needed = 0, uses_anonymous_args = 0
 222 0000 08B5     		push	{r3, lr}
 223              		.cfi_def_cfa_offset 8
 224              		.cfi_offset 3, -8
 225              		.cfi_offset 14, -4
  87:main.c        ****     LED01_Write(0);
 226              		.loc 1 87 0
 227 0002 0020     		movs	r0, #0
 228 0004 FFF7FEFF 		bl	LED01_Write
 229              	.LVL23:
  88:main.c        ****     LED02_Write(0);
 230              		.loc 1 88 0
 231 0008 0020     		movs	r0, #0
 232 000a FFF7FEFF 		bl	LED02_Write
 233              	.LVL24:
  89:main.c        ****     LED03_Write(0);
 234              		.loc 1 89 0
 235 000e 0020     		movs	r0, #0
 236 0010 FFF7FEFF 		bl	LED03_Write
 237              	.LVL25:
  90:main.c        ****     LED04_Write(0);
 238              		.loc 1 90 0
 239 0014 0020     		movs	r0, #0
 240 0016 FFF7FEFF 		bl	LED04_Write
 241              	.LVL26:
  91:main.c        ****     
  92:main.c        ****     return 0; 
  93:main.c        **** }
 242              		.loc 1 93 0
 243 001a 0020     		movs	r0, #0
 244 001c 08BD     		pop	{r3, pc}
 245              		.cfi_endproc
 246              	.LFE69:
 247              		.size	LED_off, .-LED_off
 248 001e 00BF     		.section	.text.LED_control,"ax",%progbits
 249              		.align	2
ARM GAS  C:\Users\thoma\AppData\Local\Temp\ccYbUoSw.s 			page 7


 250              		.global	LED_control
 251              		.thumb
 252              		.thumb_func
 253              		.type	LED_control, %function
 254              	LED_control:
 255              	.LFB70:
  94:main.c        **** 
  95:main.c        **** int LED_control(int potVal){
 256              		.loc 1 95 0
 257              		.cfi_startproc
 258              		@ args = 0, pretend = 0, frame = 0
 259              		@ frame_needed = 0, uses_anonymous_args = 0
 260              	.LVL27:
 261 0000 08B5     		push	{r3, lr}
 262              		.cfi_def_cfa_offset 8
 263              		.cfi_offset 3, -8
 264              		.cfi_offset 14, -4
  96:main.c        ****     
  97:main.c        ****     if(potVal > 0 && potVal < 1000){
 265              		.loc 1 97 0
 266 0002 421E     		subs	r2, r0, #1
 267 0004 40F2E633 		movw	r3, #998
 268 0008 9A42     		cmp	r2, r3
 269 000a 0CD8     		bhi	.L15
  98:main.c        ****         LED01_Write(0); LED02_Write(0); LED03_Write(0); LED04_Write(0); 
 270              		.loc 1 98 0
 271 000c 0020     		movs	r0, #0
 272              	.LVL28:
 273 000e FFF7FEFF 		bl	LED01_Write
 274              	.LVL29:
 275 0012 0020     		movs	r0, #0
 276 0014 FFF7FEFF 		bl	LED02_Write
 277              	.LVL30:
 278 0018 0020     		movs	r0, #0
 279 001a FFF7FEFF 		bl	LED03_Write
 280              	.LVL31:
 281 001e 0020     		movs	r0, #0
 282 0020 FFF7FEFF 		bl	LED04_Write
 283              	.LVL32:
 284 0024 44E0     		b	.L16
 285              	.LVL33:
 286              	.L15:
  99:main.c        ****     }
 100:main.c        ****     else if(potVal >= 1000 && potVal < 2000){
 287              		.loc 1 100 0
 288 0026 A0F57A73 		sub	r3, r0, #1000
 289 002a B3F57A7F 		cmp	r3, #1000
 290 002e 0CD2     		bcs	.L17
 101:main.c        ****         LED01_Write(1); LED02_Write(0); LED03_Write(0); LED04_Write(0); 
 291              		.loc 1 101 0
 292 0030 0120     		movs	r0, #1
 293              	.LVL34:
 294 0032 FFF7FEFF 		bl	LED01_Write
 295              	.LVL35:
 296 0036 0020     		movs	r0, #0
 297 0038 FFF7FEFF 		bl	LED02_Write
 298              	.LVL36:
ARM GAS  C:\Users\thoma\AppData\Local\Temp\ccYbUoSw.s 			page 8


 299 003c 0020     		movs	r0, #0
 300 003e FFF7FEFF 		bl	LED03_Write
 301              	.LVL37:
 302 0042 0020     		movs	r0, #0
 303 0044 FFF7FEFF 		bl	LED04_Write
 304              	.LVL38:
 305 0048 32E0     		b	.L16
 306              	.LVL39:
 307              	.L17:
 102:main.c        ****     }
 103:main.c        ****     else if(potVal >= 2000 && potVal < 3000){
 308              		.loc 1 103 0
 309 004a A0F5FA63 		sub	r3, r0, #2000
 310 004e B3F57A7F 		cmp	r3, #1000
 311 0052 0CD2     		bcs	.L18
 104:main.c        ****         LED01_Write(1); LED02_Write(1); LED03_Write(0); LED04_Write(0); 
 312              		.loc 1 104 0
 313 0054 0120     		movs	r0, #1
 314              	.LVL40:
 315 0056 FFF7FEFF 		bl	LED01_Write
 316              	.LVL41:
 317 005a 0120     		movs	r0, #1
 318 005c FFF7FEFF 		bl	LED02_Write
 319              	.LVL42:
 320 0060 0020     		movs	r0, #0
 321 0062 FFF7FEFF 		bl	LED03_Write
 322              	.LVL43:
 323 0066 0020     		movs	r0, #0
 324 0068 FFF7FEFF 		bl	LED04_Write
 325              	.LVL44:
 326 006c 20E0     		b	.L16
 327              	.LVL45:
 328              	.L18:
 105:main.c        ****     }
 106:main.c        ****     else if(potVal >= 3000 && potVal < 4000){
 329              		.loc 1 106 0
 330 006e A0F6B833 		subw	r3, r0, #3000
 331 0072 B3F57A7F 		cmp	r3, #1000
 332 0076 0CD2     		bcs	.L19
 107:main.c        ****         LED01_Write(1); LED02_Write(1); LED03_Write(1); LED04_Write(0); 
 333              		.loc 1 107 0
 334 0078 0120     		movs	r0, #1
 335              	.LVL46:
 336 007a FFF7FEFF 		bl	LED01_Write
 337              	.LVL47:
 338 007e 0120     		movs	r0, #1
 339 0080 FFF7FEFF 		bl	LED02_Write
 340              	.LVL48:
 341 0084 0120     		movs	r0, #1
 342 0086 FFF7FEFF 		bl	LED03_Write
 343              	.LVL49:
 344 008a 0020     		movs	r0, #0
 345 008c FFF7FEFF 		bl	LED04_Write
 346              	.LVL50:
 347 0090 0EE0     		b	.L16
 348              	.LVL51:
 349              	.L19:
ARM GAS  C:\Users\thoma\AppData\Local\Temp\ccYbUoSw.s 			page 9


 108:main.c        ****     }
 109:main.c        ****     else if(potVal >= 4000){
 350              		.loc 1 109 0
 351 0092 B0F57A6F 		cmp	r0, #4000
 352 0096 0BDB     		blt	.L16
 110:main.c        ****         LED01_Write(1); LED02_Write(1); LED03_Write(1); LED04_Write(1); 
 353              		.loc 1 110 0
 354 0098 0120     		movs	r0, #1
 355              	.LVL52:
 356 009a FFF7FEFF 		bl	LED01_Write
 357              	.LVL53:
 358 009e 0120     		movs	r0, #1
 359 00a0 FFF7FEFF 		bl	LED02_Write
 360              	.LVL54:
 361 00a4 0120     		movs	r0, #1
 362 00a6 FFF7FEFF 		bl	LED03_Write
 363              	.LVL55:
 364 00aa 0120     		movs	r0, #1
 365 00ac FFF7FEFF 		bl	LED04_Write
 366              	.LVL56:
 367              	.L16:
 111:main.c        ****     }    
 112:main.c        ****     
 113:main.c        ****     
 114:main.c        ****     return 0; 
 115:main.c        **** }
 368              		.loc 1 115 0
 369 00b0 0020     		movs	r0, #0
 370 00b2 08BD     		pop	{r3, pc}
 371              		.cfi_endproc
 372              	.LFE70:
 373              		.size	LED_control, .-LED_control
 374              		.section	.text.Pot_control,"ax",%progbits
 375              		.align	2
 376              		.global	Pot_control
 377              		.thumb
 378              		.thumb_func
 379              		.type	Pot_control, %function
 380              	Pot_control:
 381              	.LFB71:
 116:main.c        **** 
 117:main.c        **** int Pot_control(uint32_t potVal){
 382              		.loc 1 117 0
 383              		.cfi_startproc
 384              		@ args = 0, pretend = 0, frame = 0
 385              		@ frame_needed = 0, uses_anonymous_args = 0
 386              	.LVL57:
 387 0000 10B5     		push	{r4, lr}
 388              		.cfi_def_cfa_offset 8
 389              		.cfi_offset 4, -8
 390              		.cfi_offset 14, -4
 391 0002 0446     		mov	r4, r0
 118:main.c        **** 
 119:main.c        ****    CyDelay(100);
 392              		.loc 1 119 0
 393 0004 6420     		movs	r0, #100
 394              	.LVL58:
ARM GAS  C:\Users\thoma\AppData\Local\Temp\ccYbUoSw.s 			page 10


 395 0006 FFF7FEFF 		bl	CyDelay
 396              	.LVL59:
 120:main.c        ****    if(ADC_IsEndConversion(ADC_WAIT_FOR_RESULT)){
 397              		.loc 1 120 0
 398 000a 0020     		movs	r0, #0
 399 000c FFF7FEFF 		bl	ADC_IsEndConversion
 400              	.LVL60:
 401 0010 10B1     		cbz	r0, .L22
 121:main.c        ****         potVal = ADC_GetResult32();
 402              		.loc 1 121 0
 403 0012 FFF7FEFF 		bl	ADC_GetResult32
 404              	.LVL61:
 405 0016 0446     		mov	r4, r0
 406              	.LVL62:
 407              	.L22:
 122:main.c        ****     }
 123:main.c        ****     LCD_ClearDisplay();
 408              		.loc 1 123 0
 409 0018 0120     		movs	r0, #1
 410 001a FFF7FEFF 		bl	LCD_WriteControl
 411              	.LVL63:
 124:main.c        ****     LCD_Position(0,0);
 412              		.loc 1 124 0
 413 001e 0021     		movs	r1, #0
 414 0020 0846     		mov	r0, r1
 415 0022 FFF7FEFF 		bl	LCD_Position
 416              	.LVL64:
 125:main.c        ****     potVal = (potVal*5000/(0xFFFF)); //Get a value between 0 and 5000 mV
 417              		.loc 1 125 0
 418 0026 41F28830 		movw	r0, #5000
 419 002a 00FB04F0 		mul	r0, r0, r4
 420 002e 074C     		ldr	r4, .L24
 421              	.LVL65:
 422 0030 A4FB0034 		umull	r3, r4, r4, r0
 423 0034 E40B     		lsrs	r4, r4, #15
 424              	.LVL66:
 126:main.c        ****     LCD_PrintNumber(potVal);
 425              		.loc 1 126 0
 426 0036 A0B2     		uxth	r0, r4
 427 0038 FFF7FEFF 		bl	LCD_PrintU32Number
 428              	.LVL67:
 127:main.c        ****     LCD_PrintString(" mV");
 429              		.loc 1 127 0
 430 003c 0448     		ldr	r0, .L24+4
 431 003e FFF7FEFF 		bl	LCD_PrintString
 432              	.LVL68:
 128:main.c        ****         
 129:main.c        ****     LED_control(potVal); 
 433              		.loc 1 129 0
 434 0042 2046     		mov	r0, r4
 435 0044 FFF7FEFF 		bl	LED_control
 436              	.LVL69:
 130:main.c        ****     
 131:main.c        ****     return 0; 
 132:main.c        **** }
 437              		.loc 1 132 0
 438 0048 0020     		movs	r0, #0
ARM GAS  C:\Users\thoma\AppData\Local\Temp\ccYbUoSw.s 			page 11


 439 004a 10BD     		pop	{r4, pc}
 440              	.LVL70:
 441              	.L25:
 442              		.align	2
 443              	.L24:
 444 004c 01800080 		.word	-2147450879
 445 0050 00000000 		.word	.LC0
 446              		.cfi_endproc
 447              	.LFE71:
 448              		.size	Pot_control, .-Pot_control
 449              		.section	.text.Light_control,"ax",%progbits
 450              		.align	2
 451              		.global	Light_control
 452              		.thumb
 453              		.thumb_func
 454              		.type	Light_control, %function
 455              	Light_control:
 456              	.LFB72:
 133:main.c        **** 
 134:main.c        **** int Light_control(uint32_t potVal){
 457              		.loc 1 134 0
 458              		.cfi_startproc
 459              		@ args = 0, pretend = 0, frame = 0
 460              		@ frame_needed = 0, uses_anonymous_args = 0
 461              	.LVL71:
 462 0000 10B5     		push	{r4, lr}
 463              		.cfi_def_cfa_offset 8
 464              		.cfi_offset 4, -8
 465              		.cfi_offset 14, -4
 466 0002 0446     		mov	r4, r0
 135:main.c        **** 
 136:main.c        ****    CyDelay(100);
 467              		.loc 1 136 0
 468 0004 6420     		movs	r0, #100
 469              	.LVL72:
 470 0006 FFF7FEFF 		bl	CyDelay
 471              	.LVL73:
 137:main.c        ****    if(ADC_IsEndConversion(ADC_WAIT_FOR_RESULT)){
 472              		.loc 1 137 0
 473 000a 0020     		movs	r0, #0
 474 000c FFF7FEFF 		bl	ADC_IsEndConversion
 475              	.LVL74:
 476 0010 10B1     		cbz	r0, .L27
 138:main.c        ****         potVal = ADC_GetResult32();
 477              		.loc 1 138 0
 478 0012 FFF7FEFF 		bl	ADC_GetResult32
 479              	.LVL75:
 480 0016 0446     		mov	r4, r0
 481              	.LVL76:
 482              	.L27:
 139:main.c        ****     }
 140:main.c        ****     LCD_ClearDisplay();
 483              		.loc 1 140 0
 484 0018 0120     		movs	r0, #1
 485 001a FFF7FEFF 		bl	LCD_WriteControl
 486              	.LVL77:
 141:main.c        ****     LCD_Position(0,0);
ARM GAS  C:\Users\thoma\AppData\Local\Temp\ccYbUoSw.s 			page 12


 487              		.loc 1 141 0
 488 001e 0021     		movs	r1, #0
 489 0020 0846     		mov	r0, r1
 490 0022 FFF7FEFF 		bl	LCD_Position
 491              	.LVL78:
 142:main.c        ****     potVal = (potVal*100/(0xFFFF)); //Get a value between 0 and 5000 mV
 492              		.loc 1 142 0
 493 0026 6420     		movs	r0, #100
 494 0028 00FB04F0 		mul	r0, r0, r4
 495 002c 0C4C     		ldr	r4, .L29
 496              	.LVL79:
 497 002e A4FB0034 		umull	r3, r4, r4, r0
 498 0032 E40B     		lsrs	r4, r4, #15
 499              	.LVL80:
 143:main.c        ****     LCD_PrintNumber(potVal);
 500              		.loc 1 143 0
 501 0034 A0B2     		uxth	r0, r4
 502 0036 FFF7FEFF 		bl	LCD_PrintU32Number
 503              	.LVL81:
 144:main.c        ****     LCD_PrintString(" mV");
 504              		.loc 1 144 0
 505 003a 0A48     		ldr	r0, .L29+4
 506 003c FFF7FEFF 		bl	LCD_PrintString
 507              	.LVL82:
 145:main.c        ****     LCD_Position(1,7); 
 508              		.loc 1 145 0
 509 0040 0721     		movs	r1, #7
 510 0042 0120     		movs	r0, #1
 511 0044 FFF7FEFF 		bl	LCD_Position
 512              	.LVL83:
 146:main.c        ****     LCD_PutChar('L');
 513              		.loc 1 146 0
 514 0048 4C20     		movs	r0, #76
 515 004a FFF7FEFF 		bl	LCD_PutChar
 516              	.LVL84:
 147:main.c        ****         
 148:main.c        ****     LED_control(5000 - potVal * 50 );
 517              		.loc 1 148 0
 518 004e 41F28830 		movw	r0, #5000
 519 0052 3223     		movs	r3, #50
 520 0054 03FB1400 		mls	r0, r3, r4, r0
 521 0058 FFF7FEFF 		bl	LED_control
 522              	.LVL85:
 149:main.c        ****     return 0; 
 150:main.c        **** }
 523              		.loc 1 150 0
 524 005c 0020     		movs	r0, #0
 525 005e 10BD     		pop	{r4, pc}
 526              	.LVL86:
 527              	.L30:
 528              		.align	2
 529              	.L29:
 530 0060 01800080 		.word	-2147450879
 531 0064 00000000 		.word	.LC0
 532              		.cfi_endproc
 533              	.LFE72:
 534              		.size	Light_control, .-Light_control
ARM GAS  C:\Users\thoma\AppData\Local\Temp\ccYbUoSw.s 			page 13


 535              		.section	.text.main,"ax",%progbits
 536              		.align	2
 537              		.global	main
 538              		.thumb
 539              		.thumb_func
 540              		.type	main, %function
 541              	main:
 542              	.LFB67:
  58:main.c        ****     CyGlobalIntEnable; /* Enable global interrupts. */
 543              		.loc 1 58 0
 544              		.cfi_startproc
 545              		@ args = 0, pretend = 0, frame = 0
 546              		@ frame_needed = 0, uses_anonymous_args = 0
 547 0000 08B5     		push	{r3, lr}
 548              		.cfi_def_cfa_offset 8
 549              		.cfi_offset 3, -8
 550              		.cfi_offset 14, -4
  59:main.c        **** 
 551              		.loc 1 59 0
 552              		.syntax unified
 553              	@ 59 "main.c" 1
 554 0002 62B6     		CPSIE   i
 555              	@ 0 "" 2
  63:main.c        ****     
 556              		.loc 1 63 0
 557              		.thumb
 558              		.syntax unified
 559 0004 FFF7FEFF 		bl	Start_F
 560              	.LVL87:
  65:main.c        ****     ADC_StartConvert(); 
 561              		.loc 1 65 0
 562 0008 FFF7FEFF 		bl	LED_off
 563              	.LVL88:
  66:main.c        ****     
 564              		.loc 1 66 0
 565 000c FFF7FEFF 		bl	ADC_StartConvert
 566              	.LVL89:
 567              	.L32:
  71:main.c        ****     }
 568              		.loc 1 71 0 discriminator 1
 569 0010 0020     		movs	r0, #0
 570 0012 FFF7FEFF 		bl	Light_control
 571              	.LVL90:
 572 0016 FBE7     		b	.L32
 573              		.cfi_endproc
 574              	.LFE67:
 575              		.size	main, .-main
 576              		.section	.rodata.str1.4,"aMS",%progbits,1
 577              		.align	2
 578              	.LC0:
 579 0000 206D5600 		.ascii	" mV\000"
 580              		.text
 581              	.Letext0:
 582              		.file 2 "d:\\psoc\\psoc creator\\4.4\\psoc creator\\import\\gnu\\arm\\5.4.1\\arm-none-eabi\\includ
 583              		.file 3 "d:\\psoc\\psoc creator\\4.4\\psoc creator\\import\\gnu\\arm\\5.4.1\\arm-none-eabi\\includ
 584              		.file 4 "Generated_Source\\PSoC5/cytypes.h"
 585              		.file 5 "Generated_Source\\PSoC5/LCD.h"
ARM GAS  C:\Users\thoma\AppData\Local\Temp\ccYbUoSw.s 			page 14


 586              		.file 6 "Generated_Source\\PSoC5/ADC.h"
 587              		.file 7 "Generated_Source\\PSoC5/LED01.h"
 588              		.file 8 "Generated_Source\\PSoC5/LED02.h"
 589              		.file 9 "Generated_Source\\PSoC5/DOWN.h"
 590              		.file 10 "Generated_Source\\PSoC5/LED03.h"
 591              		.file 11 "Generated_Source\\PSoC5/TOP.h"
 592              		.file 12 "Generated_Source\\PSoC5/LED04.h"
 593              		.file 13 "Generated_Source\\PSoC5/CyLib.h"
 594              		.file 14 "keypad.h"
 595              		.file 15 "Generated_Source\\PSoC5/core_cm3.h"